; ModuleID = '27/1607.c'
source_filename = "27/1607.c"
target datalayout = "e-m:e-p270:32:32-p271:32:32-p272:64:64-i64:64-f80:128-n8:16:32:64-S128"
target triple = "x86_64-pc-linux-gnu"

@.str = private unnamed_addr constant [3 x i8] c"%d\00", align 1
@.str.1 = private unnamed_addr constant [10 x i8] c"%lf%lf%lf\00", align 1
@.str.2 = private unnamed_addr constant [19 x i8] c"x1=%.5lf;x2=%.5lf\0A\00", align 1
@.str.3 = private unnamed_addr constant [13 x i8] c"x1=x2=%.5lf\0A\00", align 1
@.str.4 = private unnamed_addr constant [33 x i8] c"x1=%.5lf+%.5lfi;x2=%.5lf-%.5lfi\0A\00", align 1

; Function Attrs: noinline nounwind uwtable
define dso_local i32 @main() #0 {
  %1 = alloca i32, align 4
  %2 = alloca i32, align 4
  %3 = alloca i32, align 4
  %4 = alloca [100 x double], align 16
  %5 = alloca [100 x double], align 16
  %6 = alloca [100 x double], align 16
  %7 = alloca double, align 8
  %8 = alloca double, align 8
  %9 = alloca double, align 8
  %10 = alloca double, align 8
  %11 = alloca double, align 8
  store i32 0, i32* %1, align 4
  %12 = call i32 (i8*, ...) @__isoc99_scanf(i8* getelementptr inbounds ([3 x i8], [3 x i8]* @.str, i64 0, i64 0), i32* %2)
  store i32 0, i32* %3, align 4
  br label %13

13:                                               ; preds = %28, %0
  %14 = load i32, i32* %3, align 4
  %15 = load i32, i32* %2, align 4
  %16 = icmp slt i32 %14, %15
  br i1 %16, label %17, label %31

17:                                               ; preds = %13
  %18 = load i32, i32* %3, align 4
  %19 = sext i32 %18 to i64
  %20 = getelementptr inbounds [100 x double], [100 x double]* %4, i64 0, i64 %19
  %21 = load i32, i32* %3, align 4
  %22 = sext i32 %21 to i64
  %23 = getelementptr inbounds [100 x double], [100 x double]* %5, i64 0, i64 %22
  %24 = load i32, i32* %3, align 4
  %25 = sext i32 %24 to i64
  %26 = getelementptr inbounds [100 x double], [100 x double]* %6, i64 0, i64 %25
  %27 = call i32 (i8*, ...) @__isoc99_scanf(i8* getelementptr inbounds ([10 x i8], [10 x i8]* @.str.1, i64 0, i64 0), double* %20, double* %23, double* %26)
  br label %28

28:                                               ; preds = %17
  %29 = load i32, i32* %3, align 4
  %30 = add nsw i32 %29, 1
  store i32 %30, i32* %3, align 4
  br label %13

31:                                               ; preds = %13
  store i32 0, i32* %3, align 4
  br label %32

32:                                               ; preds = %250, %31
  %33 = load i32, i32* %3, align 4
  %34 = load i32, i32* %2, align 4
  %35 = icmp slt i32 %33, %34
  br i1 %35, label %36, label %253

36:                                               ; preds = %32
  %37 = load i32, i32* %3, align 4
  %38 = sext i32 %37 to i64
  %39 = getelementptr inbounds [100 x double], [100 x double]* %5, i64 0, i64 %38
  %40 = load double, double* %39, align 8
  %41 = load i32, i32* %3, align 4
  %42 = sext i32 %41 to i64
  %43 = getelementptr inbounds [100 x double], [100 x double]* %5, i64 0, i64 %42
  %44 = load double, double* %43, align 8
  %45 = fmul double %40, %44
  %46 = load i32, i32* %3, align 4
  %47 = sext i32 %46 to i64
  %48 = getelementptr inbounds [100 x double], [100 x double]* %4, i64 0, i64 %47
  %49 = load double, double* %48, align 8
  %50 = fmul double 4.000000e+00, %49
  %51 = load i32, i32* %3, align 4
  %52 = sext i32 %51 to i64
  %53 = getelementptr inbounds [100 x double], [100 x double]* %6, i64 0, i64 %52
  %54 = load double, double* %53, align 8
  %55 = fmul double %50, %54
  %56 = fsub double %45, %55
  store double %56, double* %9, align 8
  %57 = load double, double* %9, align 8
  %58 = fcmp ogt double %57, 0.000000e+00
  br i1 %58, label %59, label %129

59:                                               ; preds = %36
  %60 = load i32, i32* %3, align 4
  %61 = sext i32 %60 to i64
  %62 = getelementptr inbounds [100 x double], [100 x double]* %5, i64 0, i64 %61
  %63 = load double, double* %62, align 8
  %64 = fneg double %63
  %65 = load i32, i32* %3, align 4
  %66 = sext i32 %65 to i64
  %67 = getelementptr inbounds [100 x double], [100 x double]* %5, i64 0, i64 %66
  %68 = load double, double* %67, align 8
  %69 = load i32, i32* %3, align 4
  %70 = sext i32 %69 to i64
  %71 = getelementptr inbounds [100 x double], [100 x double]* %5, i64 0, i64 %70
  %72 = load double, double* %71, align 8
  %73 = fmul double %68, %72
  %74 = load i32, i32* %3, align 4
  %75 = sext i32 %74 to i64
  %76 = getelementptr inbounds [100 x double], [100 x double]* %4, i64 0, i64 %75
  %77 = load double, double* %76, align 8
  %78 = fmul double 4.000000e+00, %77
  %79 = load i32, i32* %3, align 4
  %80 = sext i32 %79 to i64
  %81 = getelementptr inbounds [100 x double], [100 x double]* %6, i64 0, i64 %80
  %82 = load double, double* %81, align 8
  %83 = fmul double %78, %82
  %84 = fsub double %73, %83
  %85 = call double @sqrt(double %84) #3
  %86 = fadd double %64, %85
  %87 = load i32, i32* %3, align 4
  %88 = sext i32 %87 to i64
  %89 = getelementptr inbounds [100 x double], [100 x double]* %4, i64 0, i64 %88
  %90 = load double, double* %89, align 8
  %91 = fmul double 2.000000e+00, %90
  %92 = fdiv double %86, %91
  store double %92, double* %7, align 8
  %93 = load i32, i32* %3, align 4
  %94 = sext i32 %93 to i64
  %95 = getelementptr inbounds [100 x double], [100 x double]* %5, i64 0, i64 %94
  %96 = load double, double* %95, align 8
  %97 = fneg double %96
  %98 = load i32, i32* %3, align 4
  %99 = sext i32 %98 to i64
  %100 = getelementptr inbounds [100 x double], [100 x double]* %5, i64 0, i64 %99
  %101 = load double, double* %100, align 8
  %102 = load i32, i32* %3, align 4
  %103 = sext i32 %102 to i64
  %104 = getelementptr inbounds [100 x double], [100 x double]* %5, i64 0, i64 %103
  %105 = load double, double* %104, align 8
  %106 = fmul double %101, %105
  %107 = load i32, i32* %3, align 4
  %108 = sext i32 %107 to i64
  %109 = getelementptr inbounds [100 x double], [100 x double]* %4, i64 0, i64 %108
  %110 = load double, double* %109, align 8
  %111 = fmul double 4.000000e+00, %110
  %112 = load i32, i32* %3, align 4
  %113 = sext i32 %112 to i64
  %114 = getelementptr inbounds [100 x double], [100 x double]* %6, i64 0, i64 %113
  %115 = load double, double* %114, align 8
  %116 = fmul double %111, %115
  %117 = fsub double %106, %116
  %118 = call double @sqrt(double %117) #3
  %119 = fsub double %97, %118
  %120 = load i32, i32* %3, align 4
  %121 = sext i32 %120 to i64
  %122 = getelementptr inbounds [100 x double], [100 x double]* %4, i64 0, i64 %121
  %123 = load double, double* %122, align 8
  %124 = fmul double 2.000000e+00, %123
  %125 = fdiv double %119, %124
  store double %125, double* %8, align 8
  %126 = load double, double* %7, align 8
  %127 = load double, double* %8, align 8
  %128 = call i32 (i8*, ...) @printf(i8* getelementptr inbounds ([19 x i8], [19 x i8]* @.str.2, i64 0, i64 0), double %126, double %127)
  br label %129

129:                                              ; preds = %59, %36
  %130 = load double, double* %9, align 8
  %131 = fcmp oeq double %130, 0.000000e+00
  br i1 %131, label %132, label %201

132:                                              ; preds = %129
  %133 = load i32, i32* %3, align 4
  %134 = sext i32 %133 to i64
  %135 = getelementptr inbounds [100 x double], [100 x double]* %5, i64 0, i64 %134
  %136 = load double, double* %135, align 8
  %137 = fneg double %136
  %138 = load i32, i32* %3, align 4
  %139 = sext i32 %138 to i64
  %140 = getelementptr inbounds [100 x double], [100 x double]* %5, i64 0, i64 %139
  %141 = load double, double* %140, align 8
  %142 = load i32, i32* %3, align 4
  %143 = sext i32 %142 to i64
  %144 = getelementptr inbounds [100 x double], [100 x double]* %5, i64 0, i64 %143
  %145 = load double, double* %144, align 8
  %146 = fmul double %141, %145
  %147 = load i32, i32* %3, align 4
  %148 = sext i32 %147 to i64
  %149 = getelementptr inbounds [100 x double], [100 x double]* %4, i64 0, i64 %148
  %150 = load double, double* %149, align 8
  %151 = fmul double 4.000000e+00, %150
  %152 = load i32, i32* %3, align 4
  %153 = sext i32 %152 to i64
  %154 = getelementptr inbounds [100 x double], [100 x double]* %6, i64 0, i64 %153
  %155 = load double, double* %154, align 8
  %156 = fmul double %151, %155
  %157 = fsub double %146, %156
  %158 = call double @sqrt(double %157) #3
  %159 = fadd double %137, %158
  %160 = load i32, i32* %3, align 4
  %161 = sext i32 %160 to i64
  %162 = getelementptr inbounds [100 x double], [100 x double]* %4, i64 0, i64 %161
  %163 = load double, double* %162, align 8
  %164 = fmul double 2.000000e+00, %163
  %165 = fdiv double %159, %164
  store double %165, double* %7, align 8
  %166 = load i32, i32* %3, align 4
  %167 = sext i32 %166 to i64
  %168 = getelementptr inbounds [100 x double], [100 x double]* %5, i64 0, i64 %167
  %169 = load double, double* %168, align 8
  %170 = fneg double %169
  %171 = load i32, i32* %3, align 4
  %172 = sext i32 %171 to i64
  %173 = getelementptr inbounds [100 x double], [100 x double]* %5, i64 0, i64 %172
  %174 = load double, double* %173, align 8
  %175 = load i32, i32* %3, align 4
  %176 = sext i32 %175 to i64
  %177 = getelementptr inbounds [100 x double], [100 x double]* %5, i64 0, i64 %176
  %178 = load double, double* %177, align 8
  %179 = fmul double %174, %178
  %180 = load i32, i32* %3, align 4
  %181 = sext i32 %180 to i64
  %182 = getelementptr inbounds [100 x double], [100 x double]* %4, i64 0, i64 %181
  %183 = load double, double* %182, align 8
  %184 = fmul double 4.000000e+00, %183
  %185 = load i32, i32* %3, align 4
  %186 = sext i32 %185 to i64
  %187 = getelementptr inbounds [100 x double], [100 x double]* %6, i64 0, i64 %186
  %188 = load double, double* %187, align 8
  %189 = fmul double %184, %188
  %190 = fsub double %179, %189
  %191 = call double @sqrt(double %190) #3
  %192 = fsub double %170, %191
  %193 = load i32, i32* %3, align 4
  %194 = sext i32 %193 to i64
  %195 = getelementptr inbounds [100 x double], [100 x double]* %4, i64 0, i64 %194
  %196 = load double, double* %195, align 8
  %197 = fmul double 2.000000e+00, %196
  %198 = fdiv double %192, %197
  store double %198, double* %8, align 8
  %199 = load double, double* %7, align 8
  %200 = call i32 (i8*, ...) @printf(i8* getelementptr inbounds ([13 x i8], [13 x i8]* @.str.3, i64 0, i64 0), double %199)
  br label %201

201:                                              ; preds = %132, %129
  %202 = load double, double* %9, align 8
  %203 = fcmp olt double %202, 0.000000e+00
  br i1 %203, label %204, label %249

204:                                              ; preds = %201
  %205 = load i32, i32* %3, align 4
  %206 = sext i32 %205 to i64
  %207 = getelementptr inbounds [100 x double], [100 x double]* %5, i64 0, i64 %206
  %208 = load double, double* %207, align 8
  %209 = fneg double %208
  %210 = load i32, i32* %3, align 4
  %211 = sext i32 %210 to i64
  %212 = getelementptr inbounds [100 x double], [100 x double]* %4, i64 0, i64 %211
  %213 = load double, double* %212, align 8
  %214 = fmul double 2.000000e+00, %213
  %215 = fdiv double %209, %214
  store double %215, double* %10, align 8
  %216 = load i32, i32* %3, align 4
  %217 = sext i32 %216 to i64
  %218 = getelementptr inbounds [100 x double], [100 x double]* %5, i64 0, i64 %217
  %219 = load double, double* %218, align 8
  %220 = load i32, i32* %3, align 4
  %221 = sext i32 %220 to i64
  %222 = getelementptr inbounds [100 x double], [100 x double]* %5, i64 0, i64 %221
  %223 = load double, double* %222, align 8
  %224 = fmul double %219, %223
  %225 = load i32, i32* %3, align 4
  %226 = sext i32 %225 to i64
  %227 = getelementptr inbounds [100 x double], [100 x double]* %4, i64 0, i64 %226
  %228 = load double, double* %227, align 8
  %229 = fmul double 4.000000e+00, %228
  %230 = load i32, i32* %3, align 4
  %231 = sext i32 %230 to i64
  %232 = getelementptr inbounds [100 x double], [100 x double]* %6, i64 0, i64 %231
  %233 = load double, double* %232, align 8
  %234 = fmul double %229, %233
  %235 = fsub double %224, %234
  %236 = fneg double %235
  %237 = call double @sqrt(double %236) #3
  %238 = load i32, i32* %3, align 4
  %239 = sext i32 %238 to i64
  %240 = getelementptr inbounds [100 x double], [100 x double]* %4, i64 0, i64 %239
  %241 = load double, double* %240, align 8
  %242 = fmul double 2.000000e+00, %241
  %243 = fdiv double %237, %242
  store double %243, double* %11, align 8
  %244 = load double, double* %10, align 8
  %245 = load double, double* %11, align 8
  %246 = load double, double* %10, align 8
  %247 = load double, double* %11, align 8
  %248 = call i32 (i8*, ...) @printf(i8* getelementptr inbounds ([33 x i8], [33 x i8]* @.str.4, i64 0, i64 0), double %244, double %245, double %246, double %247)
  br label %249

249:                                              ; preds = %204, %201
  br label %250

250:                                              ; preds = %249
  %251 = load i32, i32* %3, align 4
  %252 = add nsw i32 %251, 1
  store i32 %252, i32* %3, align 4
  br label %32

253:                                              ; preds = %32
  ret i32 0
}

declare dso_local i32 @__isoc99_scanf(i8*, ...) #1

; Function Attrs: nounwind
declare dso_local double @sqrt(double) #2

declare dso_local i32 @printf(i8*, ...) #1


!llvm.module.flags = !{!0}
!llvm.ident = !{!1}

!0 = !{i32 1, !"wchar_size", i32 4}
!1 = !{!"clang version 10.0.0-4ubuntu1 "}
